target datalayout = "e-m:e-p270:32:32-p271:32:32-p272:64:64-i64:64-i128:128-f80:128-n8:16:32:64-S128"
target triple = "x86_64-pc-linux-gnu"

%struct.mbedtls_pk_info_t = type { i32, ptr, ptr, ptr, ptr, ptr, ptr, ptr, ptr, ptr, ptr, ptr }
%struct.mbedtls_pk_context = type { ptr, ptr }

; Function Attrs: inlinehint nounwind uwtable
define internal zeroext i8 @mbedtls_md_get_size_from_type(i32 noundef %0) #3 {
  %2 = alloca i32, align 4
  store i32 %0, ptr %2, align 4, !tbaa !16
  %3 = load i32, ptr %2, align 4, !tbaa !16
  %4 = call ptr @mbedtls_md_info_from_type(i32 noundef %3)
  %5 = call zeroext i8 @mbedtls_md_get_size(ptr noundef %4)
  ret i8 %5
}

; Function Attrs: inlinehint nounwind uwtable
define internal i32 @pk_hashlen_helper(i32 noundef %0, ptr noundef %1) #3 {
  %3 = alloca i32, align 4
  %4 = alloca i32, align 4
  %5 = alloca ptr, align 8
  store i32 %0, ptr %4, align 4, !tbaa !16
  store ptr %1, ptr %5, align 8, !tbaa !58
  %6 = load ptr, ptr %5, align 8, !tbaa !58
  %7 = load i64, ptr %6, align 8, !tbaa !41
  %8 = icmp ne i64 %7, 0
  br i1 %8, label %9, label %10

9:                                                ; preds = %2
  store i32 0, ptr %3, align 4
  br label %20

10:                                               ; preds = %2
  %11 = load i32, ptr %4, align 4, !tbaa !16
  %12 = call zeroext i8 @mbedtls_md_get_size_from_type(i32 noundef %11)
  %13 = zext i8 %12 to i64
  %14 = load ptr, ptr %5, align 8, !tbaa !58
  store i64 %13, ptr %14, align 8, !tbaa !41
  %15 = load ptr, ptr %5, align 8, !tbaa !58
  %16 = load i64, ptr %15, align 8, !tbaa !41
  %17 = icmp eq i64 %16, 0
  br i1 %17, label %18, label %19

18:                                               ; preds = %10
  store i32 -1, ptr %3, align 4
  br label %20

19:                                               ; preds = %10
  store i32 0, ptr %3, align 4
  br label %20

20:                                               ; preds = %19, %18, %9
  %21 = load i32, ptr %3, align 4
  ret i32 %21
}

; Function Attrs: nounwind uwtable
define hidden i32 @mbedtls_pk_sign_restartable(ptr noundef %0, i32 noundef %1, ptr noundef %2, i64 noundef %3, ptr noundef %4, i64 noundef %5, ptr noundef %6, ptr noundef %7, ptr noundef %8, ptr noundef %9) #0 {
  %11 = alloca i32, align 4
  %12 = alloca ptr, align 8
  %13 = alloca i32, align 4
  %14 = alloca ptr, align 8
  %15 = alloca i64, align 8
  %16 = alloca ptr, align 8
  %17 = alloca i64, align 8
  %18 = alloca ptr, align 8
  %19 = alloca ptr, align 8
  %20 = alloca ptr, align 8
  %21 = alloca ptr, align 8
  store ptr %0, ptr %12, align 8, !tbaa !3
  store i32 %1, ptr %13, align 4, !tbaa !16
  store ptr %2, ptr %14, align 8, !tbaa !56
  store i64 %3, ptr %15, align 8, !tbaa !41
  store ptr %4, ptr %16, align 8, !tbaa !56
  store i64 %5, ptr %17, align 8, !tbaa !41
  store ptr %6, ptr %18, align 8, !tbaa !58
  store ptr %7, ptr %19, align 8, !tbaa !19
  store ptr %8, ptr %20, align 8, !tbaa !19
  store ptr %9, ptr %21, align 8, !tbaa !19
  %22 = load i32, ptr %13, align 4, !tbaa !16
  %23 = icmp ne i32 %22, 0
  br i1 %23, label %27, label %24

24:                                               ; preds = %10
  %25 = load i64, ptr %15, align 8, !tbaa !41
  %26 = icmp ne i64 %25, 0
  br i1 %26, label %27, label %31

27:                                               ; preds = %24, %10
  %28 = load ptr, ptr %14, align 8, !tbaa !56
  %29 = icmp eq ptr %28, null
  br i1 %29, label %30, label %31

30:                                               ; preds = %27
  store i32 -16000, ptr %11, align 4
  br label %65

31:                                               ; preds = %27, %24
  %32 = load ptr, ptr %12, align 8, !tbaa !3
  %33 = getelementptr inbounds nuw %struct.mbedtls_pk_context, ptr %32, i32 0, i32 0
  %34 = load ptr, ptr %33, align 8, !tbaa !8
  %35 = icmp eq ptr %34, null
  br i1 %35, label %40, label %36

36:                                               ; preds = %31
  %37 = load i32, ptr %13, align 4, !tbaa !16
  %38 = call i32 @pk_hashlen_helper(i32 noundef %37, ptr noundef %15)
  %39 = icmp ne i32 %38, 0
  br i1 %39, label %40, label %41

40:                                               ; preds = %36, %31
  store i32 -16000, ptr %11, align 4
  br label %65

41:                                               ; preds = %36
  %42 = load ptr, ptr %12, align 8, !tbaa !3
  %43 = getelementptr inbounds nuw %struct.mbedtls_pk_context, ptr %42, i32 0, i32 0
  %44 = load ptr, ptr %43, align 8, !tbaa !8
  %45 = getelementptr inbounds nuw %struct.mbedtls_pk_info_t, ptr %44, i32 0, i32 5
  %46 = load ptr, ptr %45, align 8, !tbaa !64
  %47 = icmp eq ptr %46, null
  br i1 %47, label %48, label %49

48:                                               ; preds = %41
  store i32 -16128, ptr %11, align 4
  br label %65

49:                                               ; preds = %41
  %50 = load ptr, ptr %12, align 8, !tbaa !3
  %51 = getelementptr inbounds nuw %struct.mbedtls_pk_context, ptr %50, i32 0, i32 0
  %52 = load ptr, ptr %51, align 8, !tbaa !8
  %53 = getelementptr inbounds nuw %struct.mbedtls_pk_info_t, ptr %52, i32 0, i32 5
  %54 = load ptr, ptr %53, align 8, !tbaa !64
  %55 = load ptr, ptr %12, align 8, !tbaa !3
  %56 = load i32, ptr %13, align 4, !tbaa !16
  %57 = load ptr, ptr %14, align 8, !tbaa !56
  %58 = load i64, ptr %15, align 8, !tbaa !41
  %59 = load ptr, ptr %16, align 8, !tbaa !56
  %60 = load i64, ptr %17, align 8, !tbaa !41
  %61 = load ptr, ptr %18, align 8, !tbaa !58
  %62 = load ptr, ptr %19, align 8, !tbaa !19
  %63 = load ptr, ptr %20, align 8, !tbaa !19
  %64 = call i32 %54(ptr noundef %55, i32 noundef %56, ptr noundef %57, i64 noundef %58, ptr noundef %59, i64 noundef %60, ptr noundef %61, ptr noundef %62, ptr noundef %63)
  store i32 %64, ptr %11, align 4
  br label %65

65:                                               ; preds = %49, %48, %40, %30
  %66 = load i32, ptr %11, align 4
  ret i32 %66
}

; Function Attrs: nounwind uwtable
define hidden i32 @mbedtls_pk_sign(ptr noundef %0, i32 noundef %1, ptr noundef %2, i64 noundef %3, ptr noundef %4, i64 noundef %5, ptr noundef %6, ptr noundef %7, ptr noundef %8) #0 {
  %10 = alloca ptr, align 8
  %11 = alloca i32, align 4
  %12 = alloca ptr, align 8
  %13 = alloca i64, align 8
  %14 = alloca ptr, align 8
  %15 = alloca i64, align 8
  %16 = alloca ptr, align 8
  %17 = alloca ptr, align 8
  %18 = alloca ptr, align 8
  store ptr %0, ptr %10, align 8, !tbaa !3
  store i32 %1, ptr %11, align 4, !tbaa !16
  store ptr %2, ptr %12, align 8, !tbaa !56
  store i64 %3, ptr %13, align 8, !tbaa !41
  store ptr %4, ptr %14, align 8, !tbaa !56
  store i64 %5, ptr %15, align 8, !tbaa !41
  store ptr %6, ptr %16, align 8, !tbaa !58
  store ptr %7, ptr %17, align 8, !tbaa !19
  store ptr %8, ptr %18, align 8, !tbaa !19
  %19 = load ptr, ptr %10, align 8, !tbaa !3
  %20 = load i32, ptr %11, align 4, !tbaa !16
  %21 = load ptr, ptr %12, align 8, !tbaa !56
  %22 = load i64, ptr %13, align 8, !tbaa !41
  %23 = load ptr, ptr %14, align 8, !tbaa !56
  %24 = load i64, ptr %15, align 8, !tbaa !41
  %25 = load ptr, ptr %16, align 8, !tbaa !58
  %26 = load ptr, ptr %17, align 8, !tbaa !19
  %27 = load ptr, ptr %18, align 8, !tbaa !19
  %28 = call i32 @mbedtls_pk_sign_restartable(ptr noundef %19, i32 noundef %20, ptr noundef %21, i64 noundef %22, ptr noundef %23, i64 noundef %24, ptr noundef %25, ptr noundef %26, ptr noundef %27, ptr noundef null)
  ret i32 %28
}