; Function Attrs: nounwind uwtable
define hidden i32 @mbedtls_pk_sign(ptr noundef %0, i32 noundef %1, ptr noundef %2, i64 noundef %3, ptr noundef %4, i64 noundef %5, ptr noundef %6, ptr noundef %7, ptr noundef %8) local_unnamed_addr #1 {
  %10 = icmp ne i32 %1, 0
  %11 = icmp ne i64 %3, 0
  %or.cond.i = or i1 %10, %11
  %12 = icmp eq ptr %2, null
  %or.cond3.i = and i1 %12, %or.cond.i
  br i1 %or.cond3.i, label %mbedtls_pk_sign_restartable.exit, label %13

13:                                               ; preds = %9
  %14 = load ptr, ptr %0, align 8, !tbaa !3
  %15 = icmp eq ptr %14, null
  br i1 %15, label %mbedtls_pk_sign_restartable.exit, label %16

16:                                               ; preds = %13
  %.not.i.i = icmp eq i64 %3, 0
  br i1 %.not.i.i, label %pk_hashlen_helper.exit.i, label %pk_hashlen_helper.exit.thread.i

pk_hashlen_helper.exit.i:                         ; preds = %16
  %17 = tail call ptr @mbedtls_md_info_from_type(i32 noundef %1) #7
  %18 = tail call zeroext i8 @mbedtls_md_get_size(ptr noundef %17) #7
  %.not.i = icmp eq i8 %18, 0
  br i1 %.not.i, label %mbedtls_pk_sign_restartable.exit, label %pk_hashlen_helper.exit.pk_hashlen_helper.exit.thread_crit_edge.i

pk_hashlen_helper.exit.pk_hashlen_helper.exit.thread_crit_edge.i: ; preds = %pk_hashlen_helper.exit.i
  %19 = zext i8 %18 to i64
  %.pre.i = load ptr, ptr %0, align 8, !tbaa !3
  br label %pk_hashlen_helper.exit.thread.i

pk_hashlen_helper.exit.thread.i:                  ; preds = %pk_hashlen_helper.exit.pk_hashlen_helper.exit.thread_crit_edge.i, %16
  %20 = phi ptr [ %.pre.i, %pk_hashlen_helper.exit.pk_hashlen_helper.exit.thread_crit_edge.i ], [ %14, %16 ]
  %.01923.i = phi i64 [ %19, %pk_hashlen_helper.exit.pk_hashlen_helper.exit.thread_crit_edge.i ], [ %3, %16 ]
  %21 = getelementptr inbounds nuw i8, ptr %20, i64 40
  %22 = load ptr, ptr %21, align 8, !tbaa !47
  %23 = icmp eq ptr %22, null
  br i1 %23, label %mbedtls_pk_sign_restartable.exit, label %24

24:                                               ; preds = %pk_hashlen_helper.exit.thread.i
  %25 = tail call i32 %22(ptr noundef nonnull %0, i32 noundef %1, ptr noundef %2, i64 noundef %.01923.i, ptr noundef %4, i64 noundef %5, ptr noundef %6, ptr noundef %7, ptr noundef %8) #7
  br label %mbedtls_pk_sign_restartable.exit

mbedtls_pk_sign_restartable.exit:                 ; preds = %9, %13, %pk_hashlen_helper.exit.i, %pk_hashlen_helper.exit.thread.i, %24
  %.0.i = phi i32 [ %25, %24 ], [ -16000, %9 ], [ -16000, %pk_hashlen_helper.exit.i ], [ -16000, %13 ], [ -16128, %pk_hashlen_helper.exit.thread.i ]
  ret i32 %.0.i
}